target datalayout = "e-m:e-p270:32:32-p271:32:32-p272:64:64-i64:64-i128:128-f80:128-n8:16:32:64-S128"
target triple = "x86_64-pc-linux-gnu"

%"class.euf::theory_checker" = type { ptr, %class.scoped_ptr_vector, %class.map }
%class.scoped_ptr_vector = type { %class.ptr_vector }
%class.ptr_vector = type { %class.vector }
%class.vector = type { ptr }
%class.map = type { %class.table2map }
%class.table2map = type { %class.core_hashtable }
%class.core_hashtable = type <{ ptr, i32, i32, i32, [4 x i8] }>

; Function Attrs: mustprogress uwtable
define linkonce_odr hidden noundef nonnull align 8 dereferenceable(8) ptr @_ZN6vectorIPN3euf21theory_checker_pluginELb0EjE9push_backERKS2_(ptr noundef nonnull align 8 dereferenceable(8) %0, ptr noundef nonnull align 8 dereferenceable(8) %1) #4 comdat align 2 {
  %3 = alloca ptr, align 8
  %4 = alloca ptr, align 8
  store ptr %0, ptr %3, align 8, !tbaa !413
  store ptr %1, ptr %4, align 8, !tbaa !83
  %5 = load ptr, ptr %3, align 8
  %6 = getelementptr inbounds nuw %class.vector, ptr %5, i32 0, i32 0
  %7 = load ptr, ptr %6, align 8, !tbaa !415
  %8 = icmp eq ptr %7, null
  br i1 %8, label %19, label %9

9:                                                ; preds = %2
  %10 = getelementptr inbounds nuw %class.vector, ptr %5, i32 0, i32 0
  %11 = load ptr, ptr %10, align 8, !tbaa !415
  %12 = getelementptr inbounds i32, ptr %11, i64 -1
  %13 = load i32, ptr %12, align 4, !tbaa !121
  %14 = getelementptr inbounds nuw %class.vector, ptr %5, i32 0, i32 0
  %15 = load ptr, ptr %14, align 8, !tbaa !415
  %16 = getelementptr inbounds i32, ptr %15, i64 -2
  %17 = load i32, ptr %16, align 4, !tbaa !121
  %18 = icmp eq i32 %13, %17
  br i1 %18, label %19, label %20

19:                                               ; preds = %9, %2
  call void @_ZN6vectorIPN3euf21theory_checker_pluginELb0EjE13expand_vectorEv(ptr noundef nonnull align 8 dereferenceable(8) %5)
  br label %20

20:                                               ; preds = %19, %9
  %21 = getelementptr inbounds nuw %class.vector, ptr %5, i32 0, i32 0
  %22 = load ptr, ptr %21, align 8, !tbaa !415
  %23 = getelementptr inbounds nuw %class.vector, ptr %5, i32 0, i32 0
  %24 = load ptr, ptr %23, align 8, !tbaa !415
  %25 = getelementptr inbounds i32, ptr %24, i64 -1
  %26 = load i32, ptr %25, align 4, !tbaa !121
  %27 = zext i32 %26 to i64
  %28 = getelementptr inbounds nuw ptr, ptr %22, i64 %27
  %29 = load ptr, ptr %4, align 8, !tbaa !83
  %30 = load ptr, ptr %29, align 8, !tbaa !18
  store ptr %30, ptr %28, align 8, !tbaa !18
  %31 = getelementptr inbounds nuw %class.vector, ptr %5, i32 0, i32 0
  %32 = load ptr, ptr %31, align 8, !tbaa !415
  %33 = getelementptr inbounds i32, ptr %32, i64 -1
  %34 = load i32, ptr %33, align 4, !tbaa !121
  %35 = add i32 %34, 1
  store i32 %35, ptr %33, align 4, !tbaa !121
  ret ptr %5
}

; Function Attrs: mustprogress uwtable
define linkonce_odr hidden void @_ZN17scoped_ptr_vectorIN3euf21theory_checker_pluginEE9push_backEPS1_(ptr noundef nonnull align 8 dereferenceable(8) %0, ptr noundef %1) #4 comdat align 2 {
  %3 = alloca ptr, align 8
  %4 = alloca ptr, align 8
  store ptr %0, ptr %3, align 8, !tbaa !10
  store ptr %1, ptr %4, align 8, !tbaa !18
  %5 = load ptr, ptr %3, align 8
  %6 = getelementptr inbounds nuw %class.scoped_ptr_vector, ptr %5, i32 0, i32 0
  %7 = call noundef nonnull align 8 dereferenceable(8) ptr @_ZN6vectorIPN3euf21theory_checker_pluginELb0EjE9push_backERKS2_(ptr noundef nonnull align 8 dereferenceable(8) %6, ptr noundef nonnull align 8 dereferenceable(8) %4)
  ret void
}

; Function Attrs: mustprogress uwtable
define hidden void @_ZN3euf14theory_checker10add_pluginEPNS_21theory_checker_pluginE(ptr noundef nonnull align 8 dereferenceable(40) %0, ptr noundef %1) #4 align 2 {
  %3 = alloca ptr, align 8
  %4 = alloca ptr, align 8
  store ptr %0, ptr %3, align 8, !tbaa !3
  store ptr %1, ptr %4, align 8, !tbaa !18
  %5 = load ptr, ptr %3, align 8
  %6 = getelementptr inbounds nuw %"class.euf::theory_checker", ptr %5, i32 0, i32 1
  %7 = load ptr, ptr %4, align 8, !tbaa !18
  call void @_ZN17scoped_ptr_vectorIN3euf21theory_checker_pluginEE9push_backEPS1_(ptr noundef nonnull align 8 dereferenceable(8) %6, ptr noundef %7)
  %8 = load ptr, ptr %4, align 8, !tbaa !18
  %9 = load ptr, ptr %8, align 8, !tbaa !20
  %10 = getelementptr inbounds ptr, ptr %9, i64 4
  %11 = load ptr, ptr %10, align 8
  call void %11(ptr noundef nonnull align 8 dereferenceable(8) %8, ptr noundef nonnull align 8 dereferenceable(40) %5)
  ret void
}