; Function Attrs: mustprogress uwtable
define hidden void @_ZN3euf14theory_checker10add_pluginEPNS_21theory_checker_pluginE(ptr noundef nonnull align 8 dereferenceable(40) %0, ptr noundef %1) local_unnamed_addr #3 align 2 {
  %3 = getelementptr inbounds nuw i8, ptr %0, i64 8
  %4 = load ptr, ptr %3, align 8, !tbaa !8
  %5 = icmp eq ptr %4, null
  br i1 %5, label %12, label %6

6:                                                ; preds = %2
  %7 = getelementptr inbounds i8, ptr %4, i64 -4
  %8 = load i32, ptr %7, align 4, !tbaa !21
  %9 = getelementptr inbounds i8, ptr %4, i64 -8
  %10 = load i32, ptr %9, align 4, !tbaa !21
  %11 = icmp eq i32 %8, %10
  br i1 %11, label %12, label %_ZN17scoped_ptr_vectorIN3euf21theory_checker_pluginEE9push_backEPS1_.exit

12:                                               ; preds = %6, %2
  tail call void @_ZN6vectorIPN3euf21theory_checker_pluginELb0EjE13expand_vectorEv(ptr noundef nonnull align 8 dereferenceable(8) %3)
  %.pre.i.i = load ptr, ptr %3, align 8, !tbaa !8
  %.phi.trans.insert.i.i = getelementptr inbounds i8, ptr %.pre.i.i, i64 -4
  %.pre2.i.i = load i32, ptr %.phi.trans.insert.i.i, align 4, !tbaa !21
  br label %_ZN17scoped_ptr_vectorIN3euf21theory_checker_pluginEE9push_backEPS1_.exit

_ZN17scoped_ptr_vectorIN3euf21theory_checker_pluginEE9push_backEPS1_.exit: ; preds = %6, %12
  %13 = phi i32 [ %.pre2.i.i, %12 ], [ %8, %6 ]
  %14 = phi ptr [ %.pre.i.i, %12 ], [ %4, %6 ]
  %15 = getelementptr inbounds i8, ptr %14, i64 -4
  %16 = zext i32 %13 to i64
  %17 = getelementptr inbounds nuw ptr, ptr %14, i64 %16
  store ptr %1, ptr %17, align 8, !tbaa !22
  %18 = add i32 %13, 1
  store i32 %18, ptr %15, align 4, !tbaa !21
  %19 = load ptr, ptr %1, align 8, !tbaa !24
  %20 = getelementptr inbounds nuw i8, ptr %19, i64 32
  %21 = load ptr, ptr %20, align 8
  tail call void %21(ptr noundef nonnull align 8 dereferenceable(8) %1, ptr noundef nonnull align 8 dereferenceable(40) %0)
  ret void
}